target datalayout = "e-m:e-p270:32:32-p271:32:32-p272:64:64-i64:64-i128:128-f80:128-n8:16:32:64-S128"
target triple = "x86_64-pc-linux-gnu"

%"union.absl::debian2::flags_internal::FlagHelpMsg" = type { ptr }
%"union.absl::debian2::flags_internal::FlagDefaultSrc" = type { i64 }
%"class.absl::debian2::flags_internal::FlagImpl" = type { %"class.absl::debian2::CommandLineFlag", ptr, ptr, ptr, %"union.absl::debian2::flags_internal::FlagHelpMsg", i8, i8, %"class.absl::debian2::once_flag", %"class.absl::debian2::flags_internal::SequenceLock", ptr, %"union.absl::debian2::flags_internal::FlagDefaultSrc", [8 x i8] }
%"class.absl::debian2::CommandLineFlag" = type { ptr }
%"class.absl::debian2::once_flag" = type { %"struct.std::atomic" }
%"struct.std::atomic" = type { %"struct.std::__atomic_base" }
%"struct.std::__atomic_base" = type { i32 }
%"class.absl::debian2::flags_internal::SequenceLock" = type { %"struct.std::atomic.0" }
%"struct.std::atomic.0" = type { %"struct.std::__atomic_base.1" }
%"struct.std::__atomic_base.1" = type { i64 }
%"struct.absl::debian2::flags_internal::FlagOneWordValue" = type { %"struct.std::atomic.0" }
%"class.absl::debian2::flags_internal::Flag.9" = type { %"class.absl::debian2::flags_internal::FlagImpl", %"struct.absl::debian2::flags_internal::FlagValue.8" }
%"struct.absl::debian2::flags_internal::FlagValue.8" = type { %"struct.absl::debian2::flags_internal::FlagOneWordValue" }
%"class.absl::debian2::Time" = type { %"class.absl::debian2::Duration" }
%"class.absl::debian2::Duration" = type <{ i64, i32, [4 x i8] }>
%union.U = type { i64 }

; Function Attrs: mustprogress nounwind uwtable
define linkonce_odr dso_local noundef i64 @_ZN4absl7debian214flags_internal22UninitializedFlagValueEv() #5 comdat {
  ret i64 -6076574518398440533
}

; Function Attrs: noreturn nounwind uwtable
define linkonce_odr hidden void @__clang_call_terminate(ptr noundef %0) #10 comdat {
  %2 = call ptr @__cxa_begin_catch(ptr %0) #3
  call void @_ZSt9terminatev() #19
  unreachable
}

; Function Attrs: mustprogress nounwind uwtable
define linkonce_odr dso_local noundef i32 @_ZStanSt12memory_orderSt23__memory_order_modifier(i32 noundef %0, i32 noundef %1) #5 comdat {
  %3 = alloca i32, align 4
  %4 = alloca i32, align 4
  store i32 %0, ptr %3, align 4
  store i32 %1, ptr %4, align 4
  %5 = load i32, ptr %3, align 4
  %6 = load i32, ptr %4, align 4
  %7 = and i32 %5, %6
  ret i32 %7
}

; Function Attrs: mustprogress nounwind uwtable
define linkonce_odr dso_local void @_ZZNK4absl7debian214flags_internal4FlagImE3GetEvEN1UD2Ev(ptr noundef nonnull align 8 dereferenceable(8) %0) unnamed_addr #5 comdat align 2 {
  %2 = alloca ptr, align 8
  store ptr %0, ptr %2, align 8
  ret void
}

; Function Attrs: mustprogress uwtable
define linkonce_odr dso_local noundef zeroext i1 @_ZNK4absl7debian214flags_internal9FlagValueImLNS1_20FlagValueStorageKindE1EE3GetERKNS1_12SequenceLockERm(ptr noundef nonnull align 8 dereferenceable(8) %0, ptr noundef nonnull align 8 dereferenceable(8) %1, ptr noundef nonnull align 8 dereferenceable(8) %2) #4 comdat align 2 personality ptr @__gxx_personality_v0 {
  %4 = alloca ptr, align 8
  %5 = alloca i32, align 4
  %6 = alloca i32, align 4
  %7 = alloca i64, align 8
  %8 = alloca i1, align 1
  %9 = alloca ptr, align 8
  %10 = alloca ptr, align 8
  %11 = alloca ptr, align 8
  %12 = alloca i64, align 8
  store ptr %0, ptr %9, align 8
  store ptr %1, ptr %10, align 8
  store ptr %2, ptr %11, align 8
  %13 = load ptr, ptr %9, align 8
  %14 = getelementptr inbounds nuw %"struct.absl::debian2::flags_internal::FlagOneWordValue", ptr %13, i32 0, i32 0
  store ptr %14, ptr %4, align 8
  store i32 2, ptr %5, align 4
  %15 = load ptr, ptr %4, align 8
  %16 = load i32, ptr %5, align 4
  %17 = invoke noundef i32 @_ZStanSt12memory_orderSt23__memory_order_modifier(i32 noundef %16, i32 noundef 65535)
          to label %18 unwind label %26

18:                                               ; preds = %3
  store i32 %17, ptr %6, align 4
  %19 = load i32, ptr %5, align 4
  switch i32 %19, label %20 [
    i32 1, label %22
    i32 2, label %22
    i32 5, label %24
  ]

20:                                               ; preds = %18
  %21 = load atomic i64, ptr %15 monotonic, align 8
  store i64 %21, ptr %7, align 8
  br label %29

22:                                               ; preds = %18, %18
  %23 = load atomic i64, ptr %15 acquire, align 8
  store i64 %23, ptr %7, align 8
  br label %29

24:                                               ; preds = %18
  %25 = load atomic i64, ptr %15 seq_cst, align 8
  store i64 %25, ptr %7, align 8
  br label %29

26:                                               ; preds = %3
  %27 = landingpad { ptr, i32 }
          catch ptr null
  %28 = extractvalue { ptr, i32 } %27, 0
  call void @__clang_call_terminate(ptr %28) #19
  unreachable

29:                                               ; preds = %24, %22, %20
  %30 = load i64, ptr %7, align 8
  store i64 %30, ptr %12, align 8
  %31 = load i64, ptr %12, align 8
  %32 = call noundef i64 @_ZN4absl7debian214flags_internal22UninitializedFlagValueEv()
  %33 = icmp eq i64 %31, %32
  br i1 %33, label %34, label %35

34:                                               ; preds = %29
  store i1 false, ptr %8, align 1
  br label %37

35:                                               ; preds = %29
  %36 = load ptr, ptr %11, align 8
  call void @llvm.memcpy.p0.p0.i64(ptr align 8 %36, ptr align 1 %12, i64 8, i1 false)
  store i1 true, ptr %8, align 1
  br label %37

37:                                               ; preds = %35, %34
  %38 = load i1, ptr %8, align 1
  ret i1 %38
}

; Function Attrs: mustprogress nounwind uwtable
define linkonce_odr dso_local void @_ZZNK4absl7debian214flags_internal4FlagImE3GetEvEN1UC2Ev(ptr noundef nonnull align 8 dereferenceable(8) %0) unnamed_addr #5 comdat align 2 {
  %2 = alloca ptr, align 8
  store ptr %0, ptr %2, align 8
  ret void
}

; Function Attrs: mustprogress uwtable
define linkonce_odr dso_local noundef i64 @_ZNK4absl7debian214flags_internal4FlagImE3GetEv(ptr noundef nonnull align 8 dereferenceable(88) %0) #4 comdat align 2 personality ptr @__gxx_personality_v0 {
  %2 = alloca ptr, align 8
  %3 = alloca %union.U, align 8
  %4 = alloca ptr, align 8
  %5 = alloca i32, align 4
  store ptr %0, ptr %2, align 8
  %6 = load ptr, ptr %2, align 8
  call void @_ZZNK4absl7debian214flags_internal4FlagImE3GetEvEN1UC2Ev(ptr noundef nonnull align 8 dereferenceable(8) %3)
  %7 = getelementptr inbounds nuw %"class.absl::debian2::flags_internal::Flag.9", ptr %6, i32 0, i32 1
  %8 = getelementptr inbounds nuw %"class.absl::debian2::flags_internal::Flag.9", ptr %6, i32 0, i32 0
  %9 = getelementptr inbounds nuw %"class.absl::debian2::flags_internal::FlagImpl", ptr %8, i32 0, i32 8
  %10 = invoke noundef zeroext i1 @_ZNK4absl7debian214flags_internal9FlagValueImLNS1_20FlagValueStorageKindE1EE3GetERKNS1_12SequenceLockERm(ptr noundef nonnull align 8 dereferenceable(8) %7, ptr noundef nonnull align 8 dereferenceable(8) %9, ptr noundef nonnull align 8 dereferenceable(8) %3)
          to label %11 unwind label %16

11:                                               ; preds = %1
  %12 = xor i1 %10, true
  br i1 %12, label %13, label %20

13:                                               ; preds = %11
  %14 = getelementptr inbounds nuw %"class.absl::debian2::flags_internal::Flag.9", ptr %6, i32 0, i32 0
  invoke void @_ZNK4absl7debian214flags_internal8FlagImpl4ReadEPv(ptr noundef nonnull align 8 dereferenceable(80) %14, ptr noundef %3)
          to label %15 unwind label %16

15:                                               ; preds = %13
  br label %20

16:                                               ; preds = %13, %1
  %17 = landingpad { ptr, i32 }
          cleanup
  %18 = extractvalue { ptr, i32 } %17, 0
  store ptr %18, ptr %4, align 8
  %19 = extractvalue { ptr, i32 } %17, 1
  store i32 %19, ptr %5, align 4
  call void @_ZZNK4absl7debian214flags_internal4FlagImE3GetEvEN1UD2Ev(ptr noundef nonnull align 8 dereferenceable(8) %3) #3
  br label %22

20:                                               ; preds = %15, %11
  %21 = load i64, ptr %3, align 8
  call void @_ZZNK4absl7debian214flags_internal4FlagImE3GetEvEN1UD2Ev(ptr noundef nonnull align 8 dereferenceable(8) %3) #3
  ret i64 %21

22:                                               ; preds = %16
  %23 = load ptr, ptr %4, align 8
  %24 = load i32, ptr %5, align 4
  %25 = insertvalue { ptr, i32 } poison, ptr %23, 0
  %26 = insertvalue { ptr, i32 } %25, i32 %24, 1
  resume { ptr, i32 } %26
}

; Function Attrs: mustprogress uwtable
define linkonce_odr dso_local noundef i64 @_ZN4absl7debian214flags_internal12FlagImplPeer9InvokeGetImNS1_4FlagImEEEET_RKT0_(ptr noundef nonnull align 8 dereferenceable(88) %0) #4 comdat align 2 {
  %2 = alloca ptr, align 8
  store ptr %0, ptr %2, align 8
  %3 = load ptr, ptr %2, align 8
  %4 = call noundef i64 @_ZNK4absl7debian214flags_internal4FlagImE3GetEv(ptr noundef nonnull align 8 dereferenceable(88) %3)
  ret i64 %4
}

; Function Attrs: mustprogress uwtable
define linkonce_odr dso_local noundef i64 @_ZN4absl7debian27GetFlagImEET_RKNS0_14flags_internal4FlagIS2_EE(ptr noundef nonnull align 8 dereferenceable(88) %0) #4 comdat {
  %2 = alloca ptr, align 8
  store ptr %0, ptr %2, align 8
  %3 = load ptr, ptr %2, align 8
  %4 = call noundef i64 @_ZN4absl7debian214flags_internal12FlagImplPeer9InvokeGetImNS1_4FlagImEEEET_RKT0_(ptr noundef nonnull align 8 dereferenceable(88) %3)
  ret i64 %4
}

; Function Attrs: mustprogress uwtable
define dso_local noundef i64 @_Z4Seedv() #4 {
  %1 = alloca i64, align 8
  %2 = alloca %"class.absl::debian2::Time", align 8
  %3 = call noundef i64 @_ZN4absl7debian27GetFlagImEET_RKNS0_14flags_internal4FlagIS2_EE(ptr noundef nonnull align 8 dereferenceable(88) @FLAGS_seed)
  store i64 %3, ptr %1, align 8
  %4 = load i64, ptr %1, align 8
  %5 = icmp ne i64 %4, 0
  br i1 %5, label %6, label %8

6:                                                ; preds = %0
  %7 = load i64, ptr %1, align 8
  br label %20

8:                                                ; preds = %0
  %9 = call { i64, i32 } @_ZN4absl7debian23NowEv()
  %10 = getelementptr inbounds nuw %"class.absl::debian2::Time", ptr %2, i32 0, i32 0
  %11 = getelementptr inbounds nuw { i64, i32 }, ptr %10, i32 0, i32 0
  %12 = extractvalue { i64, i32 } %9, 0
  store i64 %12, ptr %11, align 8
  %13 = getelementptr inbounds nuw { i64, i32 }, ptr %10, i32 0, i32 1
  %14 = extractvalue { i64, i32 } %9, 1
  store i32 %14, ptr %13, align 8
  %15 = getelementptr inbounds nuw { i64, i32 }, ptr %2, i32 0, i32 0
  %16 = load i64, ptr %15, align 8
  %17 = getelementptr inbounds nuw { i64, i32 }, ptr %2, i32 0, i32 1
  %18 = load i32, ptr %17, align 8
  %19 = call noundef i64 @_ZN4absl7debian212ToUnixMicrosENS0_4TimeE(i64 %16, i32 %18)
  br label %20

20:                                               ; preds = %8, %6
  %21 = phi i64 [ %7, %6 ], [ %19, %8 ]
  ret i64 %21
}