; Function Attrs: mustprogress uwtable
define dso_local noundef i64 @_Z4Seedv() local_unnamed_addr #3 personality ptr @__gxx_personality_v0 {
  %1 = alloca %union.U, align 8
  call void @llvm.lifetime.start.p0(i64 8, ptr nonnull %1)
  %2 = load atomic i64, ptr getelementptr inbounds nuw (i8, ptr @FLAGS_seed, i64 80) acquire, align 8
  %.not.i.i.i = icmp eq i64 %2, -6076574518398440533
  br i1 %.not.i.i.i, label %_ZNK4absl7debian214flags_internal9FlagValueImLNS1_20FlagValueStorageKindE1EE3GetERKNS1_12SequenceLockERm.exit.i.i.i, label %_ZN4absl7debian27GetFlagImEET_RKNS0_14flags_internal4FlagIS2_EE.exit

_ZNK4absl7debian214flags_internal9FlagValueImLNS1_20FlagValueStorageKindE1EE3GetERKNS1_12SequenceLockERm.exit.i.i.i: ; preds = %0
  call void @_ZNK4absl7debian214flags_internal8FlagImpl4ReadEPv(ptr noundef nonnull align 8 dereferenceable(80) @FLAGS_seed, ptr noundef nonnull %1)
  %.pre.i.i.i = load i64, ptr %1, align 8
  br label %_ZN4absl7debian27GetFlagImEET_RKNS0_14flags_internal4FlagIS2_EE.exit

_ZN4absl7debian27GetFlagImEET_RKNS0_14flags_internal4FlagIS2_EE.exit: ; preds = %0, %_ZNK4absl7debian214flags_internal9FlagValueImLNS1_20FlagValueStorageKindE1EE3GetERKNS1_12SequenceLockERm.exit.i.i.i
  %3 = phi i64 [ %.pre.i.i.i, %_ZNK4absl7debian214flags_internal9FlagValueImLNS1_20FlagValueStorageKindE1EE3GetERKNS1_12SequenceLockERm.exit.i.i.i ], [ %2, %0 ]
  call void @llvm.lifetime.end.p0(i64 8, ptr nonnull %1)
  %.not = icmp eq i64 %3, 0
  br i1 %.not, label %4, label %9

4:                                                ; preds = %_ZN4absl7debian27GetFlagImEET_RKNS0_14flags_internal4FlagIS2_EE.exit
  %5 = call { i64, i32 } @_ZN4absl7debian23NowEv()
  %6 = extractvalue { i64, i32 } %5, 0
  %7 = extractvalue { i64, i32 } %5, 1
  %8 = call noundef i64 @_ZN4absl7debian212ToUnixMicrosENS0_4TimeE(i64 %6, i32 %7)
  br label %9

9:                                                ; preds = %_ZN4absl7debian27GetFlagImEET_RKNS0_14flags_internal4FlagIS2_EE.exit, %4
  %10 = phi i64 [ %8, %4 ], [ %3, %_ZN4absl7debian27GetFlagImEET_RKNS0_14flags_internal4FlagIS2_EE.exit ]
  ret i64 %10
}